target datalayout = "e-m:e-p270:32:32-p271:32:32-p272:64:64-i64:64-i128:128-f80:128-n8:16:32:64-S128"
target triple = "x86_64-pc-linux-gnu"

%struct.strvec = type { ptr, i64, i64 }
%struct.strbuf = type { i64, i64, ptr }
%struct.stash_info = type { %struct.object_id, %struct.object_id, %struct.object_id, %struct.object_id, %struct.object_id, %struct.object_id, %struct.object_id, %struct.object_id, %struct.strbuf, i32, i32 }
%struct.object_id = type { [32 x i8], i32 }
%struct.hashmap = type { ptr, ptr, ptr, i32, i32, i32, i32, i8 }
%struct.child_process = type { %struct.strvec, %struct.strvec, i32, i32, i64, ptr, ptr, i32, i32, i32, ptr, i16, ptr }
%struct.index_state = type { ptr, i32, i32, i32, i32, ptr, ptr, ptr, %struct.cache_time, i8, i32, %struct.hashmap, %struct.hashmap, %struct.object_id, ptr, ptr, ptr, ptr, ptr, ptr, ptr }
%struct.cache_time = type { i32, i32 }

@the_repository = external global ptr, align 8
@stash_index_path = internal global %struct.strbuf { i64 0, i64 0, ptr @strbuf_slopbuf }, align 8
@.str.58 = private unnamed_addr constant [18 x i8] c"GIT_INDEX_FILE=%s\00", align 1
@__const.save_untracked_files.untracked_msg = private unnamed_addr constant %struct.strbuf { i64 0, i64 0, ptr @strbuf_slopbuf }, align 8
@.str.109 = private unnamed_addr constant [13 x i8] c"update-index\00", align 1
@.str.110 = private unnamed_addr constant [3 x i8] c"-z\00", align 1
@.str.111 = private unnamed_addr constant [6 x i8] c"--add\00", align 1
@.str.112 = private unnamed_addr constant [9 x i8] c"--remove\00", align 1
@.str.113 = private unnamed_addr constant [8 x i8] c"--stdin\00", align 1
@.str.114 = private unnamed_addr constant [23 x i8] c"untracked files on %s\0A\00", align 1

; Function Attrs: nounwind uwtable
define internal i32 @save_untracked_files(ptr noundef %0, ptr noundef %1, ptr noundef byval(%struct.strbuf) align 8 %2) #0 {
  %4 = alloca ptr, align 8
  %5 = alloca ptr, align 8
  %6 = alloca i32, align 4
  %7 = alloca %struct.strbuf, align 8
  %8 = alloca %struct.child_process, align 8
  %9 = alloca %struct.index_state, align 8
  store ptr %0, ptr %4, align 8, !tbaa !109
  store ptr %1, ptr %5, align 8, !tbaa !127
  call void @llvm.lifetime.start.p0(i64 4, ptr %6) #9
  store i32 0, ptr %6, align 4, !tbaa !4
  call void @llvm.lifetime.start.p0(i64 24, ptr %7) #9
  call void @llvm.memcpy.p0.p0.i64(ptr align 8 %7, ptr align 8 @__const.save_untracked_files.untracked_msg, i64 24, i1 false)
  call void @llvm.lifetime.start.p0(i64 120, ptr %8) #9
  call void @llvm.memcpy.p0.p0.i64(ptr align 8 %8, ptr align 8 @__const.save_untracked_files.cp_upd_index, i64 120, i1 false)
  call void @llvm.lifetime.start.p0(i64 256, ptr %9) #9
  call void @llvm.memset.p0.i64(ptr align 8 %9, i8 0, i64 256, i1 false)
  %10 = getelementptr inbounds nuw %struct.index_state, ptr %9, i32 0, i32 19
  %11 = load ptr, ptr @the_repository, align 8, !tbaa !13
  store ptr %11, ptr %10, align 8, !tbaa !197
  %12 = getelementptr inbounds nuw %struct.child_process, ptr %8, i32 0, i32 11
  %13 = load i16, ptr %12, align 8
  %14 = and i16 %13, -9
  %15 = or i16 %14, 8
  store i16 %15, ptr %12, align 8
  %16 = getelementptr inbounds nuw %struct.child_process, ptr %8, i32 0, i32 0
  call void (ptr, ...) @strvec_pushl(ptr noundef %16, ptr noundef @.str.109, ptr noundef @.str.110, ptr noundef @.str.111, ptr noundef @.str.112, ptr noundef @.str.113, ptr noundef null)
  %17 = getelementptr inbounds nuw %struct.child_process, ptr %8, i32 0, i32 1
  %18 = load ptr, ptr getelementptr inbounds nuw (%struct.strbuf, ptr @stash_index_path, i32 0, i32 2), align 8, !tbaa !112
  %19 = call ptr (ptr, ptr, ...) @strvec_pushf(ptr noundef %17, ptr noundef @.str.58, ptr noundef %18)
  %20 = load ptr, ptr %5, align 8, !tbaa !127
  %21 = getelementptr inbounds nuw %struct.strbuf, ptr %20, i32 0, i32 2
  %22 = load ptr, ptr %21, align 8, !tbaa !112
  call void (ptr, ptr, ...) @strbuf_addf(ptr noundef %7, ptr noundef @.str.114, ptr noundef %22)
  %23 = getelementptr inbounds nuw %struct.strbuf, ptr %2, i32 0, i32 2
  %24 = load ptr, ptr %23, align 8, !tbaa !112
  %25 = getelementptr inbounds nuw %struct.strbuf, ptr %2, i32 0, i32 1
  %26 = load i64, ptr %25, align 8, !tbaa !114
  %27 = call i32 @pipe_command(ptr noundef %8, ptr noundef %24, i64 noundef %26, ptr noundef null, i64 noundef 0, ptr noundef null, i64 noundef 0)
  %28 = icmp ne i32 %27, 0
  br i1 %28, label %29, label %30

29:                                               ; preds = %3
  store i32 -1, ptr %6, align 4, !tbaa !4
  br label %50

30:                                               ; preds = %3
  %31 = load ptr, ptr %4, align 8, !tbaa !109
  %32 = getelementptr inbounds nuw %struct.stash_info, ptr %31, i32 0, i32 7
  %33 = load ptr, ptr getelementptr inbounds nuw (%struct.strbuf, ptr @stash_index_path, i32 0, i32 2), align 8, !tbaa !112
  %34 = call i32 @write_index_as_tree(ptr noundef %32, ptr noundef %9, ptr noundef %33, i32 noundef 0, ptr noundef null)
  %35 = icmp ne i32 %34, 0
  br i1 %35, label %36, label %37

36:                                               ; preds = %30
  store i32 -1, ptr %6, align 4, !tbaa !4
  br label %50

37:                                               ; preds = %30
  %38 = getelementptr inbounds nuw %struct.strbuf, ptr %7, i32 0, i32 2
  %39 = load ptr, ptr %38, align 8, !tbaa !112
  %40 = getelementptr inbounds nuw %struct.strbuf, ptr %7, i32 0, i32 1
  %41 = load i64, ptr %40, align 8, !tbaa !114
  %42 = load ptr, ptr %4, align 8, !tbaa !109
  %43 = getelementptr inbounds nuw %struct.stash_info, ptr %42, i32 0, i32 7
  %44 = load ptr, ptr %4, align 8, !tbaa !109
  %45 = getelementptr inbounds nuw %struct.stash_info, ptr %44, i32 0, i32 3
  %46 = call i32 @commit_tree(ptr noundef %39, i64 noundef %41, ptr noundef %43, ptr noundef null, ptr noundef %45, ptr noundef null, ptr noundef null)
  %47 = icmp ne i32 %46, 0
  br i1 %47, label %48, label %49

48:                                               ; preds = %37
  store i32 -1, ptr %6, align 4, !tbaa !4
  br label %50

49:                                               ; preds = %37
  br label %50

50:                                               ; preds = %49, %48, %36, %29
  call void @release_index(ptr noundef %9)
  call void @strbuf_release(ptr noundef %7)
  %51 = load ptr, ptr getelementptr inbounds nuw (%struct.strbuf, ptr @stash_index_path, i32 0, i32 2), align 8, !tbaa !112
  %52 = call i32 @remove_path(ptr noundef %51)
  %53 = load i32, ptr %6, align 4, !tbaa !4
  call void @llvm.lifetime.end.p0(i64 256, ptr %9) #9
  call void @llvm.lifetime.end.p0(i64 120, ptr %8) #9
  call void @llvm.lifetime.end.p0(i64 24, ptr %7) #9
  call void @llvm.lifetime.end.p0(i64 4, ptr %6) #9
  ret i32 %53
}