; Function Attrs: nounwind uwtable
define internal fastcc range(i32 -1, 1) i32 @save_untracked_files(ptr noundef nonnull %0, ptr noundef nonnull readonly captures(none) %1, i64 %.8.val, ptr %.16.val) unnamed_addr #0 {
  %3 = alloca %struct.strbuf, align 8
  %4 = alloca %struct.child_process, align 8
  %5 = alloca %struct.index_state, align 8
  call void @llvm.lifetime.start.p0(i64 24, ptr nonnull %3) #15
  call void @llvm.memcpy.p0.p0.i64(ptr noundef nonnull align 8 dereferenceable(24) %3, ptr noundef nonnull align 8 dereferenceable(24) @__const.do_push_stash.out, i64 24, i1 false)
  call void @llvm.lifetime.start.p0(i64 120, ptr nonnull %4) #15
  call void @llvm.memcpy.p0.p0.i64(ptr noundef nonnull align 8 dereferenceable(120) %4, ptr noundef nonnull align 8 dereferenceable(120) @__const.do_push_stash.cp.159, i64 120, i1 false)
  call void @llvm.lifetime.start.p0(i64 256, ptr nonnull %5) #15
  call void @llvm.memset.p0.i64(ptr noundef nonnull align 8 dereferenceable(256) %5, i8 0, i64 256, i1 false)
  %6 = getelementptr inbounds nuw i8, ptr %5, i64 240
  %7 = load ptr, ptr @the_repository, align 8, !tbaa !18
  store ptr %7, ptr %6, align 8, !tbaa !186
  %8 = getelementptr inbounds nuw i8, ptr %4, i64 104
  store i16 8, ptr %8, align 8
  call void (ptr, ...) @strvec_pushl(ptr noundef nonnull %4, ptr noundef nonnull @.str.109, ptr noundef nonnull @.str.110, ptr noundef nonnull @.str.111, ptr noundef nonnull @.str.112, ptr noundef nonnull @.str.113, ptr noundef null) #15
  %9 = getelementptr inbounds nuw i8, ptr %4, i64 24
  %10 = load ptr, ptr getelementptr inbounds nuw (i8, ptr @stash_index_path, i64 16), align 8, !tbaa !131
  %11 = call ptr (ptr, ptr, ...) @strvec_pushf(ptr noundef nonnull %9, ptr noundef nonnull @.str.58, ptr noundef %10) #15
  %12 = getelementptr inbounds nuw i8, ptr %1, i64 16
  %13 = load ptr, ptr %12, align 8, !tbaa !131
  call void (ptr, ptr, ...) @strbuf_addf(ptr noundef nonnull %3, ptr noundef nonnull @.str.114, ptr noundef %13) #15
  %14 = call i32 @pipe_command(ptr noundef nonnull %4, ptr noundef %.16.val, i64 noundef %.8.val, ptr noundef null, i64 noundef 0, ptr noundef null, i64 noundef 0) #15
  %.not = icmp eq i32 %14, 0
  br i1 %.not, label %15, label %26

15:                                               ; preds = %2
  %16 = getelementptr inbounds nuw i8, ptr %0, i64 252
  %17 = load ptr, ptr getelementptr inbounds nuw (i8, ptr @stash_index_path, i64 16), align 8, !tbaa !131
  %18 = call i32 @write_index_as_tree(ptr noundef nonnull %16, ptr noundef nonnull %5, ptr noundef %17, i32 noundef 0, ptr noundef null) #15
  %.not4 = icmp eq i32 %18, 0
  br i1 %.not4, label %19, label %26

19:                                               ; preds = %15
  %20 = getelementptr inbounds nuw i8, ptr %3, i64 16
  %21 = load ptr, ptr %20, align 8, !tbaa !131
  %22 = getelementptr inbounds nuw i8, ptr %3, i64 8
  %23 = load i64, ptr %22, align 8, !tbaa !132
  %24 = getelementptr inbounds nuw i8, ptr %0, i64 108
  %25 = call i32 @commit_tree(ptr noundef %21, i64 noundef %23, ptr noundef nonnull %16, ptr noundef null, ptr noundef nonnull %24, ptr noundef null, ptr noundef null) #15
  %.not5 = icmp ne i32 %25, 0
  %spec.select = sext i1 %.not5 to i32
  br label %26

26:                                               ; preds = %19, %15, %2
  %.0 = phi i32 [ -1, %2 ], [ -1, %15 ], [ %spec.select, %19 ]
  call void @release_index(ptr noundef nonnull %5) #15
  call void @strbuf_release(ptr noundef nonnull %3) #15
  %27 = load ptr, ptr getelementptr inbounds nuw (i8, ptr @stash_index_path, i64 16), align 8, !tbaa !131
  %28 = call i32 @remove_path(ptr noundef %27) #15
  call void @llvm.lifetime.end.p0(i64 256, ptr nonnull %5) #15
  call void @llvm.lifetime.end.p0(i64 120, ptr nonnull %4) #15
  call void @llvm.lifetime.end.p0(i64 24, ptr nonnull %3) #15
  ret i32 %.0
}